; Function Attrs: mustprogress uwtable
define noundef ptr @_ZNK19OpenColorIO_v2_5dev6Config28getDisplayViewColorSpaceNameEPKcS2_(ptr noundef nonnull readonly align 8 captures(none) dereferenceable(8) %0, ptr noundef %1, ptr noundef %2) local_unnamed_addr #4 align 2 {
  %4 = load ptr, ptr %0, align 8, !tbaa !34
  %5 = tail call noundef ptr @_ZNK19OpenColorIO_v2_5dev6Config4Impl7getViewEPKcS3_(ptr noundef nonnull align 8 dereferenceable(1120) %4, ptr noundef %1, ptr noundef %2)
  %.not = icmp eq ptr %5, null
  br i1 %.not, label %9, label %6

6:                                                ; preds = %3
  %7 = getelementptr inbounds nuw i8, ptr %5, i64 64
  %8 = load ptr, ptr %7, align 8, !tbaa !29
  br label %9

9:                                                ; preds = %3, %6
  %.0 = phi ptr [ %8, %6 ], [ @.str.25, %3 ]
  ret ptr %.0
}